target datalayout = "e-m:e-p270:32:32-p271:32:32-p272:64:64-i64:64-i128:128-f80:128-n8:16:32:64-S128"
target triple = "x86_64-pc-linux-gnu"

%struct._lv_bar_anim_t = type { ptr, i32, i32, i32 }
%struct._lv_anim_t = type { ptr, ptr, ptr, ptr, ptr, ptr, ptr, ptr, ptr, i32, i32, i32, i32, i32, i32, i32, i32, i32, %union._lv_anim_path_para_t, i32, i8 }
%union._lv_anim_path_para_t = type { %struct.lv_anim_bezier3_para_t }
%struct.lv_anim_bezier3_para_t = type { i16, i16, i16, i16 }
%union.lv_style_value_t = type { ptr }

; Function Attrs: inlinehint nounwind uwtable
define internal i32 @lv_obj_get_style_anim_duration(ptr noundef %0, i32 noundef %1) #3 {
  %3 = alloca ptr, align 8
  %4 = alloca i32, align 4
  %5 = alloca %union.lv_style_value_t, align 8
  store ptr %0, ptr %3, align 8, !tbaa !3
  store i32 %1, ptr %4, align 4, !tbaa !23
  call void @llvm.lifetime.start.p0(i64 8, ptr %5) #5
  %6 = load ptr, ptr %3, align 8, !tbaa !3
  %7 = load i32, ptr %4, align 4, !tbaa !23
  %8 = call ptr @lv_obj_get_style_prop(ptr noundef %6, i32 noundef %7, i8 noundef zeroext 100)
  %9 = getelementptr inbounds nuw %union.lv_style_value_t, ptr %5, i32 0, i32 0
  store ptr %8, ptr %9, align 8
  %10 = load i32, ptr %5, align 8, !tbaa !34
  call void @llvm.lifetime.end.p0(i64 8, ptr %5) #5
  ret i32 %10
}

; Function Attrs: nounwind uwtable
define internal void @lv_bar_init_anim(ptr noundef %0, ptr noundef %1) #0 {
  %3 = alloca ptr, align 8
  %4 = alloca ptr, align 8
  store ptr %0, ptr %3, align 8, !tbaa !3
  store ptr %1, ptr %4, align 8, !tbaa !3
  %5 = load ptr, ptr %3, align 8, !tbaa !3
  %6 = load ptr, ptr %4, align 8, !tbaa !3
  %7 = getelementptr inbounds nuw %struct._lv_bar_anim_t, ptr %6, i32 0, i32 0
  store ptr %5, ptr %7, align 8, !tbaa !33
  %8 = load ptr, ptr %4, align 8, !tbaa !3
  %9 = getelementptr inbounds nuw %struct._lv_bar_anim_t, ptr %8, i32 0, i32 1
  store i32 0, ptr %9, align 8, !tbaa !25
  %10 = load ptr, ptr %4, align 8, !tbaa !3
  %11 = getelementptr inbounds nuw %struct._lv_bar_anim_t, ptr %10, i32 0, i32 2
  store i32 0, ptr %11, align 4, !tbaa !26
  %12 = load ptr, ptr %4, align 8, !tbaa !3
  %13 = getelementptr inbounds nuw %struct._lv_bar_anim_t, ptr %12, i32 0, i32 3
  store i32 -1, ptr %13, align 8, !tbaa !24
  ret void
}

; Function Attrs: nounwind uwtable
define internal void @lv_bar_set_value_with_anim(ptr noundef %0, i32 noundef %1, ptr noundef %2, ptr noundef %3, i32 noundef %4) #0 {
  %6 = alloca ptr, align 8
  %7 = alloca i32, align 4
  %8 = alloca ptr, align 8
  %9 = alloca ptr, align 8
  %10 = alloca i32, align 4
  %11 = alloca %struct._lv_anim_t, align 8
  store ptr %0, ptr %6, align 8, !tbaa !3
  store i32 %1, ptr %7, align 4, !tbaa !23
  store ptr %2, ptr %8, align 8, !tbaa !3
  store ptr %3, ptr %9, align 8, !tbaa !3
  store i32 %4, ptr %10, align 4, !tbaa !23
  %12 = load i32, ptr %10, align 4, !tbaa !23
  %13 = icmp eq i32 %12, 0
  br i1 %13, label %14, label %26

14:                                               ; preds = %5
  %15 = load ptr, ptr %9, align 8, !tbaa !3
  %16 = call zeroext i1 @lv_anim_delete(ptr noundef %15, ptr noundef null)
  %17 = load ptr, ptr %9, align 8, !tbaa !3
  %18 = getelementptr inbounds nuw %struct._lv_bar_anim_t, ptr %17, i32 0, i32 3
  store i32 -1, ptr %18, align 8, !tbaa !24
  %19 = load i32, ptr %7, align 4, !tbaa !23
  %20 = load ptr, ptr %8, align 8, !tbaa !3
  store i32 %19, ptr %20, align 4, !tbaa !23
  %21 = load ptr, ptr %6, align 8, !tbaa !3
  call void @lv_obj_invalidate(ptr noundef %21)
  %22 = load ptr, ptr %9, align 8, !tbaa !3
  %23 = call zeroext i1 @lv_anim_delete(ptr noundef %22, ptr noundef null)
  %24 = load ptr, ptr %6, align 8, !tbaa !3
  %25 = load ptr, ptr %9, align 8, !tbaa !3
  call void @lv_bar_init_anim(ptr noundef %24, ptr noundef %25)
  br label %57

26:                                               ; preds = %5
  %27 = load ptr, ptr %9, align 8, !tbaa !3
  %28 = getelementptr inbounds nuw %struct._lv_bar_anim_t, ptr %27, i32 0, i32 3
  %29 = load i32, ptr %28, align 8, !tbaa !24
  %30 = icmp eq i32 %29, -1
  br i1 %30, label %31, label %39

31:                                               ; preds = %26
  %32 = load ptr, ptr %8, align 8, !tbaa !3
  %33 = load i32, ptr %32, align 4, !tbaa !23
  %34 = load ptr, ptr %9, align 8, !tbaa !3
  %35 = getelementptr inbounds nuw %struct._lv_bar_anim_t, ptr %34, i32 0, i32 1
  store i32 %33, ptr %35, align 8, !tbaa !25
  %36 = load i32, ptr %7, align 4, !tbaa !23
  %37 = load ptr, ptr %9, align 8, !tbaa !3
  %38 = getelementptr inbounds nuw %struct._lv_bar_anim_t, ptr %37, i32 0, i32 2
  store i32 %36, ptr %38, align 4, !tbaa !26
  br label %48

39:                                               ; preds = %26
  %40 = load ptr, ptr %9, align 8, !tbaa !3
  %41 = getelementptr inbounds nuw %struct._lv_bar_anim_t, ptr %40, i32 0, i32 2
  %42 = load i32, ptr %41, align 4, !tbaa !26
  %43 = load ptr, ptr %9, align 8, !tbaa !3
  %44 = getelementptr inbounds nuw %struct._lv_bar_anim_t, ptr %43, i32 0, i32 1
  store i32 %42, ptr %44, align 8, !tbaa !25
  %45 = load i32, ptr %7, align 4, !tbaa !23
  %46 = load ptr, ptr %9, align 8, !tbaa !3
  %47 = getelementptr inbounds nuw %struct._lv_bar_anim_t, ptr %46, i32 0, i32 2
  store i32 %45, ptr %47, align 4, !tbaa !26
  br label %48

48:                                               ; preds = %39, %31
  %49 = load i32, ptr %7, align 4, !tbaa !23
  %50 = load ptr, ptr %8, align 8, !tbaa !3
  store i32 %49, ptr %50, align 4, !tbaa !23
  %51 = load ptr, ptr %9, align 8, !tbaa !3
  %52 = call zeroext i1 @lv_anim_delete(ptr noundef %51, ptr noundef null)
  call void @llvm.lifetime.start.p0(i64 128, ptr %11) #5
  call void @lv_anim_init(ptr noundef %11)
  %53 = load ptr, ptr %9, align 8, !tbaa !3
  call void @lv_anim_set_var(ptr noundef %11, ptr noundef %53)
  call void @lv_anim_set_exec_cb(ptr noundef %11, ptr noundef @lv_bar_anim)
  call void @lv_anim_set_values(ptr noundef %11, i32 noundef 0, i32 noundef 256)
  call void @lv_anim_set_completed_cb(ptr noundef %11, ptr noundef @lv_bar_anim_completed)
  %54 = load ptr, ptr %6, align 8, !tbaa !3
  %55 = call i32 @lv_obj_get_style_anim_duration(ptr noundef %54, i32 noundef 0)
  call void @lv_anim_set_duration(ptr noundef %11, i32 noundef %55)
  %56 = call ptr @lv_anim_start(ptr noundef %11)
  call void @llvm.lifetime.end.p0(i64 128, ptr %11) #5
  br label %57

57:                                               ; preds = %48, %14
  ret void
}