; Function Attrs: nounwind uwtable
define internal fastcc void @lv_bar_set_value_with_anim(ptr noundef %0, i32 noundef %1, ptr nocapture noundef %2, ptr noundef %3, i32 noundef %4) unnamed_addr #0 {
  %6 = alloca %struct._lv_anim_t, align 8
  %7 = icmp eq i32 %4, 0
  br i1 %7, label %8, label %14

8:                                                ; preds = %5
  %9 = tail call zeroext i1 @lv_anim_delete(ptr noundef %3, ptr noundef null) #7
  %10 = getelementptr inbounds nuw i8, ptr %3, i64 16
  store i32 -1, ptr %10, align 8, !tbaa !20
  store i32 %1, ptr %2, align 4, !tbaa !22
  tail call void @lv_obj_invalidate(ptr noundef %0) #7
  %11 = tail call zeroext i1 @lv_anim_delete(ptr noundef %3, ptr noundef null) #7
  store ptr %0, ptr %3, align 8, !tbaa !17
  %12 = getelementptr inbounds nuw i8, ptr %3, i64 8
  store i32 0, ptr %12, align 8, !tbaa !18
  %13 = getelementptr inbounds nuw i8, ptr %3, i64 12
  store i32 0, ptr %13, align 4, !tbaa !19
  store i32 -1, ptr %10, align 8, !tbaa !20
  br label %31

14:                                               ; preds = %5
  %15 = getelementptr inbounds nuw i8, ptr %3, i64 16
  %16 = load i32, ptr %15, align 8, !tbaa !20
  %17 = icmp eq i32 %16, -1
  br i1 %17, label %18, label %22

18:                                               ; preds = %14
  %19 = load i32, ptr %2, align 4, !tbaa !22
  %20 = getelementptr inbounds nuw i8, ptr %3, i64 8
  store i32 %19, ptr %20, align 8, !tbaa !18
  %21 = getelementptr inbounds nuw i8, ptr %3, i64 12
  store i32 %1, ptr %21, align 4, !tbaa !19
  br label %26

22:                                               ; preds = %14
  %23 = getelementptr inbounds nuw i8, ptr %3, i64 12
  %24 = load i32, ptr %23, align 4, !tbaa !19
  %25 = getelementptr inbounds nuw i8, ptr %3, i64 8
  store i32 %24, ptr %25, align 8, !tbaa !18
  store i32 %1, ptr %23, align 4, !tbaa !19
  br label %26

26:                                               ; preds = %22, %18
  store i32 %1, ptr %2, align 4, !tbaa !22
  %27 = tail call zeroext i1 @lv_anim_delete(ptr noundef nonnull %3, ptr noundef null) #7
  call void @llvm.lifetime.start.p0(i64 128, ptr nonnull %6) #7
  call void @lv_anim_init(ptr noundef nonnull %6) #7
  call void @lv_anim_set_var(ptr noundef nonnull %6, ptr noundef nonnull %3) #7
  call void @lv_anim_set_exec_cb(ptr noundef nonnull %6, ptr noundef nonnull @lv_bar_anim) #7
  call void @lv_anim_set_values(ptr noundef nonnull %6, i32 noundef 0, i32 noundef 256) #7
  call void @lv_anim_set_completed_cb(ptr noundef nonnull %6, ptr noundef nonnull @lv_bar_anim_completed) #7
  %28 = call ptr @lv_obj_get_style_prop(ptr noundef %0, i32 noundef 0, i8 noundef zeroext 100) #7
  %29 = ptrtoint ptr %28 to i64
  %.sroa.0.0.extract.trunc.i = trunc i64 %29 to i32
  call void @lv_anim_set_duration(ptr noundef nonnull %6, i32 noundef %.sroa.0.0.extract.trunc.i) #7
  %30 = call ptr @lv_anim_start(ptr noundef nonnull %6) #7
  call void @llvm.lifetime.end.p0(i64 128, ptr nonnull %6) #7
  br label %31

31:                                               ; preds = %26, %8
  ret void
}